(lp0
ccopy_reg
_reconstructor
p1
(ccatedra
Bloque
p2
c__builtin__
object
p3
Ntp4
Rp5
(dp6
S'tamanio'
p7
I3
sS'inicio'
p8
NsS'id_proceso'
p9
I1
sbag1
(g2
g3
Ntp10
Rp11
(dp12
g7
I2
sg8
Nsg9
I2
sbag1
(g2
g3
Ntp13
Rp14
(dp15
g7
I4
sg8
Nsg9
I3
sbag1
(g2
g3
Ntp16
Rp17
(dp18
g7
I1
sg8
Nsg9
I4
sbag1
(g2
g3
Ntp19
Rp20
(dp21
g7
I2
sg8
Nsg9
I5
sba.